ccollections
defaultdict
p0
(c__builtin__
int
p1
tp2
Rp3
(I126
I197
I100
tp4
I1
s(I93
I325
I119
tp5
I1
s(I156
I101
I100
tp6
I1
s(I399
I197
I119
tp7
I1
s(I224
I197
I115
tp8
I1
s(I386
I197
Ntp9
I1
s(I21
I197
Ntp10
I1
s(I396
I197
Ntp11
I1
s(I370
I197
I119
tp12
I1
s(I407
I165
I119
tp13
I1
s(I302
I197
I97
tp14
I1
s(I317
I261
I119
tp15
I1
s(I352
I453
I100
tp16
I69
s(I352
I421
I115
tp17
I44
s(I213
I261
I119
tp18
I1
s(I384
I389
I97
tp19
I14
s(I320
I421
I119
tp20
I35
s(I301
I165
I119
tp21
I1
s(I373
I165
I100
tp22
I1
s(I375
I229
I100
tp23
I1
s(I197
I165
I119
tp24
I1
s(I359
I165
Ntp25
I1
s(I325
I229
Ntp26
I1
s(I416
I421
I119
tp27
I11
s(I93
I229
Ntp28
I1
s(I372
I197
Ntp29
I1
s(I312
I165
I119
tp30
I1
s(I386
I133
Ntp31
I1
s(I89
I229
I115
tp32
I1
s(I397
I229
Ntp33
I1
s(I197
I197
I97
tp34
I1
s(I320
I389
Ntp35
I19
s(I0
I325
I115
tp36
I4
s(I187
I229
I100
tp37
I1
s(I192
I229
Ntp38
I1
s(I387
I197
Ntp39
I1
s(I155
I101
I100
tp40
I1
s(I224
I229
I97
tp41
I1
s(I361
I197
Ntp42
I1
s(I352
I421
I100
tp43
I42
s(I213
I229
I119
tp44
I1
s(I384
I293
I97
tp45
I6
s(I320
I453
I119
tp46
I66
s(I142
I197
I97
tp47
I1
s(I150
I133
I119
tp48
I1
s(I303
I165
I97
tp49
I1
s(I266
I165
I100
tp50
I1
s(I195
I101
I119
tp51
I1
s(I288
I389
I119
tp52
I23
s(I109
I101
I119
tp53
I1
s(I283
I261
I119
tp54
I1
s(I388
I165
I100
tp55
I1
s(I63
I101
I100
tp56
I1
s(I192
I421
Ntp57
I69
s(I0
I325
I100
tp58
I5
s(I409
I133
I115
tp59
I1
s(I160
I389
I97
tp60
I20
s(I317
I197
Ntp61
I1
s(I320
I133
I115
tp62
I1
s(I410
I133
Ntp63
I1
s(I401
I133
I100
tp64
I1
s(I174
I133
I97
tp65
I1
s(I297
I133
I100
tp66
I1
s(I352
I229
I115
tp67
I1
s(I256
I325
I97
tp68
I14
s(I320
I357
I119
tp69
I14
s(I103
I101
I119
tp70
I1
s(I342
I229
Ntp71
I1
s(I222
I197
I115
tp72
I1
s(I191
I197
I119
tp73
I1
s(I144
I101
I97
tp74
I1
s(I278
I229
I119
tp75
I1
s(I256
I421
Ntp76
I65
s(I358
I229
I100
tp77
I1
s(I288
I485
I119
tp78
I110
s(I158
I197
I119
tp79
I1
s(I226
I229
I119
tp80
I1
s(I258
I197
I97
tp81
I1
s(I250
I229
Ntp82
I1
s(I50
I229
I100
tp83
I1
s(I0
I389
Ntp84
I9
s(I221
I133
I97
tp85
I1
s(I160
I485
I97
tp86
I130
s(I96
I325
I119
tp87
I7
s(I61
I293
Ntp88
I1
s(I146
I101
I97
tp89
I1
s(I0
I357
Ntp90
I5
s(I352
I229
I100
tp91
I2
s(I129
I133
Ntp92
I1
s(I192
I261
I119
tp93
I3
s(I298
I197
Ntp94
I1
s(I127
I165
I97
tp95
I1
s(I138
I101
I97
tp96
I1
s(I240
I197
I100
tp97
I1
s(I159
I133
Ntp98
I1
s(I125
I261
I119
tp99
I1
s(I133
I165
I100
tp100
I1
s(I256
I325
Ntp101
I13
s(I174
I197
I119
tp102
I1
s(I242
I197
I97
tp103
I1
s(I415
I197
I119
tp104
I1
s(I0
I293
Ntp105
I2
s(I160
I325
I97
tp106
I9
s(I344
I229
Ntp107
I1
s(I96
I293
I119
tp108
I5
s(I223
I197
I119
tp109
I1
s(I357
I165
I119
tp110
I1
s(I294
I197
I119
tp111
I1
s(I376
I165
I115
tp112
I1
s(I305
I133
I115
tp113
I1
s(I217
I197
I100
tp114
I1
s(I201
I133
I115
tp115
I1
s(I125
I229
I119
tp116
I1
s(I302
I165
I119
tp117
I1
s(I32
I389
I115
tp118
I19
s(I242
I197
I119
tp119
I1
s(I323
I197
I119
tp120
I1
s(I340
I229
Ntp121
I1
s(I268
I197
I119
tp122
I1
s(I235
I229
I115
tp123
I1
s(I269
I229
Ntp124
I1
s(I221
I229
I119
tp125
I1
s(I64
I261
Ntp126
I2
s(I61
I229
I115
tp127
I1
s(I349
I197
I97
tp128
I1
s(I416
I421
I97
tp129
I15
s(I96
I389
I119
tp130
I19
s(I384
I229
Ntp131
I1
s(I23
I229
I115
tp132
I1
s(I366
I133
I115
tp133
I1
s(I203
I197
I115
tp134
I1
s(I376
I165
I100
tp135
I1
s(I397
I133
I115
tp136
I1
s(I272
I197
I97
tp137
I1
s(I166
I165
Ntp138
I1
s(I296
I197
I97
tp139
I1
s(I32
I389
I100
tp140
I19
s(I32
I485
I115
tp141
I85
s(I320
I453
I97
tp142
I80
s(I408
I133
Ntp143
I1
s(I0
I357
I119
tp144
I4
s(I291
I229
I115
tp145
I1
s(I123
I165
I119
tp146
I1
s(I405
I101
Ntp147
I1
s(I187
I197
I100
tp148
I1
s(I211
I197
I100
tp149
I1
s(I384
I485
I115
tp150
I84
s(I288
I389
I97
tp151
I21
s(I352
I357
I119
tp152
I14
s(I404
I165
I97
tp153
I1
s(I168
I133
Ntp154
I1
s(I320
I325
I97
tp155
I11
s(I309
I133
I115
tp156
I1
s(I195
I133
I115
tp157
I1
s(I95
I133
I100
tp158
I1
s(I343
I197
I119
tp159
I1
s(I32
I485
I100
tp160
I68
s(I320
I357
I97
tp161
I13
s(I0
I261
I119
tp162
I1
s(I210
I197
I115
tp163
I1
s(I150
I101
I100
tp164
I1
s(I144
I101
I115
tp165
I1
s(I296
I197
Ntp166
I1
s(I101
I197
I115
tp167
I1
s(I354
I133
Ntp168
I1
s(I403
I165
I115
tp169
I1
s(I135
I197
I115
tp170
I1
s(I384
I485
I100
tp171
I58
s(I384
I389
I115
tp172
I18
s(I288
I485
I97
tp173
I124
s(I93
I261
Ntp174
I1
s(I395
I133
I119
tp175
I1
s(I288
I389
Ntp176
I27
s(I96
I325
I97
tp177
I11
s(I116
I229
I100
tp178
I1
s(I391
I133
Ntp179
I1
s(I155
I101
Ntp180
I1
s(I32
I421
Ntp181
I34
s(I192
I261
I97
tp182
I4
s(I376
I229
Ntp183
I1
s(I0
I421
I119
tp184
I13
s(I128
I261
I119
tp185
I4
s(I406
I165
Ntp186
I1
s(I240
I197
Ntp187
I1
s(I68
I197
I97
tp188
I1
s(I384
I389
I100
tp189
I14
s(I384
I293
I115
tp190
I7
s(I352
I165
I119
tp191
I1
s(I384
I357
I115
tp192
I11
s(I243
I229
I119
tp193
I1
s(I320
I325
Ntp194
I10
s(I303
I165
Ntp195
I1
s(I96
I293
I97
tp196
I5
s(I263
I165
I115
tp197
I1
s(I359
I165
I119
tp198
I1
s(I386
I165
Ntp199
I1
s(I311
I165
Ntp200
I1
s(I160
I389
I115
tp201
I28
s(I21
I229
I119
tp202
I1
s(I84
I101
Ntp203
I1
s(I205
I133
I115
tp204
I1
s(I315
I261
Ntp205
I1
s(I384
I293
I100
tp206
I5
s(I256
I325
I115
tp207
I11
s(I96
I261
Ntp208
I2
s(I144
I197
I100
tp209
I1
s(I383
I197
Ntp210
I1
s(I320
I485
Ntp211
I100
s(I188
I133
I119
tp212
I1
s(I96
I389
I97
tp213
I17
s(I409
I197
Ntp214
I1
s(I108
I197
I100
tp215
I1
s(I59
I197
I97
tp216
I1
s(I170
I165
I100
tp217
I1
s(I411
I133
I115
tp218
I1
s(I96
I293
Ntp219
I5
s(I316
I197
Ntp220
I1
s(I160
I485
I115
tp221
I135
s(I29
I325
I100
tp222
I1
s(I251
I165
I119
tp223
I1
s(I163
I229
Ntp224
I1
s(I256
I229
Ntp225
I1
s(I256
I325
I100
tp226
I14
s(I0
I357
I97
tp227
I5
s(I298
I197
I97
tp228
I1
s(I361
I133
I115
tp229
I1
s(I128
I325
Ntp230
I11
s(I417
I165
I119
tp231
I1
s(I64
I229
I100
tp232
I1
s(I352
I357
I97
tp233
I12
s(I235
I197
Ntp234
I1
s(I313
I165
I119
tp235
I1
s(I317
I229
Ntp236
I1
s(I151
I197
I97
tp237
I1
s(I410
I229
Ntp238
I1
s(I267
I133
I97
tp239
I1
s(I154
I229
I119
tp240
I1
s(I307
I197
Ntp241
I1
s(I361
I165
I100
tp242
I1
s(I160
I485
I100
tp243
I127
s(I160
I325
I115
tp244
I8
s(I199
I133
I115
tp245
I1
s(I267
I197
Ntp246
I1
s(I230
I229
I119
tp247
I1
s(I174
I229
I100
tp248
I1
s(I256
I389
Ntp249
I30
s(I96
I357
I119
tp250
I13
s(I0
I261
I97
tp251
I1
s(I408
I133
I115
tp252
I1
s(I278
I229
Ntp253
I1
s(I379
I165
Ntp254
I1
s(I324
I197
Ntp255
I1
s(I29
I325
I119
tp256
I1
s(I218
I229
I97
tp257
I1
s(I320
I421
I115
tp258
I56
s(I317
I165
I100
tp259
I1
s(I32
I293
I119
tp260
I5
s(I313
I261
I119
tp261
I1
s(I401
I165
Ntp262
I1
s(I381
I261
I119
tp263
I1
s(I97
I101
I119
tp264
I1
s(I228
I197
I97
tp265
I1
s(I160
I325
I100
tp266
I11
s(I416
I421
I115
tp267
I14
s(I350
I197
Ntp268
I1
s(I248
I229
Ntp269
I1
s(I128
I421
I119
tp270
I36
s(I358
I197
I119
tp271
I1
s(I312
I165
I115
tp272
I1
s(I228
I197
I115
tp273
I1
s(I356
I229
Ntp274
I1
s(I0
I421
I97
tp275
I13
s(I398
I165
Ntp276
I1
s(I322
I133
I97
tp277
I1
s(I320
I421
I100
tp278
I52
s(I320
I453
I115
tp279
I85
s(I350
I133
Ntp280
I1
s(I244
I229
Ntp281
I1
s(I141
I261
I119
tp282
I1
s(I150
I133
I115
tp283
I1
s(I289
I229
I97
tp284
I1
s(I416
I421
I100
tp285
I13
s(I288
I389
I115
tp286
I30
s(I125
I101
I100
tp287
I1
s(I128
I325
I119
tp288
I9
s(I121
I197
I119
tp289
I1
s(I288
I293
I115
tp290
I6
s(I165
I229
I97
tp291
I1
s(I352
I485
Ntp292
I81
s(I272
I197
I100
tp293
I1
s(I251
I197
I100
tp294
I1
s(I64
I357
Ntp295
I13
s(I320
I453
I100
tp296
I79
s(I192
I229
I115
tp297
I1
s(I210
I197
I97
tp298
I1
s(I317
I261
Ntp299
I1
s(I121
I229
Ntp300
I1
s(I187
I197
I97
tp301
I1
s(I386
I197
I119
tp302
I1
s(I326
I133
Ntp303
I1
s(I198
I229
I100
tp304
I1
s(I14
I101
I119
tp305
I1
s(I288
I389
I100
tp306
I22
s(I288
I485
I115
tp307
I132
s(I256
I357
I119
tp308
I16
s(I374
I133
Ntp309
I1
s(I380
I165
I97
tp310
I1
s(I382
I133
I119
tp311
I1
s(I219
I197
Ntp312
I1
s(I320
I101
Ntp313
I1
s(I96
I325
I115
tp314
I9
s(I256
I229
I100
tp315
I2
s(I349
I229
Ntp316
I1
s(I355
I165
I100
tp317
I1
s(I313
I229
Ntp318
I1
s(I142
I101
I97
tp319
I1
s(I23
I197
I100
tp320
I1
s(I306
I197
Ntp321
I1
s(I320
I357
I100
tp322
I13
s(I192
I261
I115
tp323
I4
s(I189
I229
Ntp324
I1
s(I319
I165
I115
tp325
I1
s(I365
I133
I115
tp326
I1
s(I279
I197
I97
tp327
I1
s(I296
I229
Ntp328
I1
s(I411
I197
Ntp329
I1
s(I282
I229
Ntp330
I1
s(I416
I453
Ntp331
I29
s(I288
I485
I100
tp332
I123
s(I27
I229
Ntp333
I1
s(I380
I165
Ntp334
I1
s(I129
I197
Ntp335
I1
s(I256
I261
I119
tp336
I6
s(I27
I197
I100
tp337
I1
s(I160
I485
Ntp338
I127
s(I224
I197
I100
tp339
I1
s(I96
I293
I115
tp340
I5
s(I208
I197
I100
tp341
I1
s(I107
I133
Ntp342
I1
s(I219
I197
I97
tp343
I1
s(I380
I133
Ntp344
I1
s(I285
I197
I119
tp345
I1
s(I293
I197
Ntp346
I1
s(I192
I261
I100
tp347
I4
s(I231
I165
I115
tp348
I1
s(I341
I197
Ntp349
I1
s(I108
I229
Ntp350
I1
s(I283
I229
Ntp351
I1
s(I288
I421
Ntp352
I59
s(I252
I165
I119
tp353
I1
s(I32
I293
I97
tp354
I4
s(I256
I421
I119
tp355
I48
s(I131
I229
I100
tp356
I1
s(I32
I453
Ntp357
I73
s(I403
I229
Ntp358
I1
s(I96
I293
I100
tp359
I5
s(I96
I389
I115
tp360
I24
s(I128
I421
I97
tp361
I56
s(I157
I229
Ntp362
I1
s(I372
I165
I119
tp363
I1
s(I276
I197
I115
tp364
I1
s(I96
I453
I97
tp365
I78
s(I413
I229
I119
tp366
I1
s(I254
I229
Ntp367
I1
s(I416
I389
I119
tp368
I9
s(I251
I197
I115
tp369
I1
s(I399
I165
I97
tp370
I1
s(I192
I293
Ntp371
I5
s(I114
I229
Ntp372
I1
s(I0
I357
I115
tp373
I5
s(I222
I197
I100
tp374
I1
s(I322
I197
Ntp375
I1
s(I275
I197
I119
tp376
I1
s(I416
I357
I97
tp377
I6
s(I61
I325
I119
tp378
I1
s(I224
I485
Ntp379
I211
s(I189
I101
I97
tp380
I1
s(I352
I357
I115
tp381
I12
s(I128
I325
I97
tp382
I12
s(I64
I485
I119
tp383
I73
s(I394
I133
Ntp384
I1
s(I316
I197
I100
tp385
I1
s(I176
I133
I119
tp386
I1
s(I416
I485
I119
tp387
I37
s(I184
I229
I119
tp388
I1
s(I347
I229
Ntp389
I1
s(I311
I261
I119
tp390
I1
s(I0
I357
I100
tp391
I6
s(I0
I261
I115
tp392
I1
s(I210
I197
I119
tp393
I1
s(I363
I133
Ntp394
I1
s(I308
I165
Ntp395
I1
s(I409
I165
Ntp396
I1
s(I400
I197
Ntp397
I1
s(I215
I197
I97
tp398
I1
s(I403
I165
I119
tp399
I1
s(I96
I453
Ntp400
I67
s(I352
I357
I100
tp401
I12
s(I256
I357
I97
tp402
I12
s(I64
I261
I119
tp403
I2
s(I221
I229
Ntp404
I1
s(I27
I197
I115
tp405
I1
s(I384
I325
Ntp406
I10
s(I178
I197
I97
tp407
I1
s(I288
I197
I119
tp408
I1
s(I277
I165
I115
tp409
I1
s(I369
I165
I119
tp410
I1
s(I311
I165
I119
tp411
I1
s(I128
I293
Ntp412
I5
s(I0
I261
I100
tp413
I2
s(I0
I421
I115
tp414
I14
s(I160
I197
I97
tp415
I1
s(I303
I197
Ntp416
I1
s(I253
I229
I100
tp417
I1
s(I256
I197
I119
tp418
I1
s(I256
I261
I97
tp419
I4
s(I192
I293
I119
tp420
I8
s(I125
I101
Ntp421
I1
s(I268
I197
I100
tp422
I1
s(I205
I261
I97
tp423
I1
s(I200
I197
Ntp424
I1
s(I315
I229
Ntp425
I1
s(I119
I229
Ntp426
I1
s(I185
I101
I115
tp427
I1
s(I0
I229
I100
tp428
I1
s(I288
I293
I119
tp429
I9
s(I59
I101
I100
tp430
I1
s(I192
I261
Ntp431
I4
s(I402
I165
Ntp432
I1
s(I0
I421
I100
tp433
I17
s(I224
I389
I119
tp434
I29
s(I416
I229
I119
tp435
I1
s(I245
I197
I97
tp436
I1
s(I263
I229
Ntp437
I1
s(I401
I133
Ntp438
I1
s(I392
I197
Ntp439
I1
s(I317
I133
I115
tp440
I1
s(I203
I229
I119
tp441
I1
s(I352
I165
I100
tp442
I1
s(I203
I133
I115
tp443
I1
s(I320
I197
I119
tp444
I1
s(I376
I133
I115
tp445
I1
s(I408
I165
I97
tp446
I1
s(I187
I197
I119
tp447
I1
s(I96
I325
I100
tp448
I11
s(I356
I133
Ntp449
I1
s(I335
I133
Ntp450
I1
s(I153
I133
I119
tp451
I1
s(I237
I229
I119
tp452
I1
s(I380
I165
I100
tp453
I1
s(I398
I133
Ntp454
I1
s(I343
I197
Ntp455
I1
s(I221
I133
I119
tp456
I1
s(I416
I389
I97
tp457
I10
s(I96
I229
I119
tp458
I1
s(I362
I165
I119
tp459
I1
s(I251
I197
I97
tp460
I1
s(I223
I261
I119
tp461
I1
s(I320
I389
I97
tp462
I19
s(I192
I485
I119
tp463
I139
s(I166
I133
I119
tp464
I1
s(I276
I197
Ntp465
I1
s(I127
I197
I97
tp466
I1
s(I367
I133
I115
tp467
I1
s(I315
I165
I119
tp468
I1
s(I292
I133
I100
tp469
I1
s(I18
I197
Ntp470
I1
s(I133
I261
I100
tp471
I1
s(I352
I389
Ntp472
I17
s(I125
I197
I97
tp473
I1
s(I327
I133
I97
tp474
I1
s(I64
I485
I97
tp475
I80
s(I271
I197
I100
tp476
I1
s(I291
I165
I100
tp477
I1
s(I411
I293
I119
tp478
I1
s(I362
I165
I100
tp479
I1
s(I104
I229
I100
tp480
I1
s(I44
I101
I97
tp481
I1
s(I392
I229
I97
tp482
I1
s(I61
I293
I115
tp483
I1
s(I111
I133
I119
tp484
I1
s(I416
I485
I97
tp485
I53
s(I352
I325
I119
tp486
I12
s(I129
I101
I100
tp487
I1
s(I406
I229
I97
tp488
I1
s(I229
I197
I119
tp489
I1
s(I411
I261
Ntp490
I1
s(I140
I101
I97
tp491
I1
s(I288
I261
Ntp492
I4
s(I399
I165
Ntp493
I1
s(I376
I229
I100
tp494
I1
s(I374
I229
Ntp495
I1
s(I96
I421
I97
tp496
I48
s(I407
I165
Ntp497
I1
s(I388
I229
I97
tp498
I1
s(I32
I293
I115
tp499
I4
s(I64
I261
I97
tp500
I3
s(I405
I165
I115
tp501
I1
s(I359
I197
Ntp502
I1
s(I112
I197
Ntp503
I1
s(I127
I133
I119
tp504
I1
s(I349
I197
I119
tp505
I1
s(I128
I421
I115
tp506
I60
s(I416
I325
I97
tp507
I6
s(I352
I293
I119
tp508
I9
s(I219
I101
I119
tp509
I1
s(I276
I229
I97
tp510
I1
s(I416
I197
I97
tp511
I1
s(I416
I485
Ntp512
I43
s(I164
I197
I97
tp513
I1
s(I384
I197
Ntp514
I1
s(I283
I229
I115
tp515
I1
s(I95
I197
I100
tp516
I1
s(I98
I165
I115
tp517
I1
s(I361
I133
Ntp518
I1
s(I160
I261
Ntp519
I3
s(I253
I133
I97
tp520
I1
s(I192
I293
I97
tp521
I6
s(I212
I197
I100
tp522
I1
s(I180
I133
I97
tp523
I1
s(I127
I101
I119
tp524
I1
s(I315
I229
I100
tp525
I1
s(I364
I133
I115
tp526
I1
s(I228
I197
Ntp527
I1
s(I189
I101
I115
tp528
I1
s(I218
I165
I115
tp529
I1
s(I128
I421
I100
tp530
I54
s(I128
I325
I115
tp531
I10
s(I288
I293
I97
tp532
I7
s(I352
I389
I119
tp533
I18
s(I404
I165
I119
tp534
I1
s(I110
I229
Ntp535
I1
s(I388
I261
I119
tp536
I1
s(I335
I165
I97
tp537
I1
s(I360
I165
I119
tp538
I1
s(I224
I389
I97
tp539
I24
s(I281
I197
Ntp540
I1
s(I172
I165
I119
tp541
I1
s(I395
I197
Ntp542
I1
s(I384
I229
I97
tp543
I1
s(I224
I293
Ntp544
I5
s(I389
I197
Ntp545
I1
s(I239
I229
Ntp546
I1
s(I192
I325
I97
tp547
I13
s(I412
I165
I97
tp548
I1
s(I205
I229
I115
tp549
I1
s(I302
I229
Ntp550
I1
s(I208
I229
I97
tp551
I1
s(I393
I101
I119
tp552
I1
s(I306
I133
I100
tp553
I1
s(I224
I453
Ntp554
I123
s(I128
I325
I100
tp555
I9
s(I256
I357
I115
tp556
I13
s(I382
I133
Ntp557
I1
s(I93
I261
I100
tp558
I1
s(I146
I197
I97
tp559
I1
s(I157
I133
I119
tp560
I1
s(I367
I165
Ntp561
I1
s(I224
I357
I97
tp562
I15
s(I244
I197
I100
tp563
I1
s(I374
I197
Ntp564
I1
s(I368
I197
Ntp565
I1
s(I300
I197
I119
tp566
I1
s(I136
I101
I100
tp567
I1
s(I224
I389
Ntp568
I26
s(I32
I229
I100
tp569
I1
s(I192
I485
I97
tp570
I161
s(I409
I165
I119
tp571
I1
s(I278
I229
I100
tp572
I1
s(I309
I229
Ntp573
I1
s(I393
I197
I119
tp574
I1
s(I363
I165
I119
tp575
I1
s(I256
I357
I100
tp576
I15
s(I256
I261
I115
tp577
I4
s(I373
I165
I119
tp578
I1
s(I213
I165
I115
tp579
I1
s(I347
I197
I119
tp580
I1
s(I351
I165
I119
tp581
I1
s(I122
I101
I100
tp582
I1
s(I396
I229
I97
tp583
I1
s(I399
I197
Ntp584
I1
s(I316
I197
I119
tp585
I1
s(I352
I325
I97
tp586
I8
s(I355
I165
I119
tp587
I1
s(I399
I133
Ntp588
I1
s(I118
I101
Ntp589
I1
s(I238
I197
I97
tp590
I1
s(I253
I261
I119
tp591
I1
s(I169
I165
Ntp592
I1
s(I371
I165
Ntp593
I1
s(I338
I229
Ntp594
I1
s(I61
I293
I119
tp595
I1
s(I416
I325
I119
tp596
I6
s(I96
I325
Ntp597
I10
s(I155
I197
I97
tp598
I1
s(I366
I229
Ntp599
I1
s(I23
I261
I119
tp600
I1
s(I348
I229
Ntp601
I1
s(I388
I229
I115
tp602
I1
s(I256
I261
I100
tp603
I5
s(I256
I421
I115
tp604
I74
s(I93
I197
I100
tp605
I1
s(I145
I101
I97
tp606
I1
s(I222
I133
I119
tp607
I1
s(I315
I229
I115
tp608
I1
s(I285
I197
I100
tp609
I1
s(I397
I165
Ntp610
I1
s(I192
I453
Ntp611
I110
s(I125
I101
I115
tp612
I1
s(I292
I197
I97
tp613
I1
s(I157
I325
I97
tp614
I1
s(I316
I165
I119
tp615
I1
s(I352
I293
I97
tp616
I5
s(I32
I261
I119
tp617
I3
s(I158
I165
I100
tp618
I1
s(I411
I229
I115
tp619
I1
s(I243
I197
Ntp620
I1
s(I274
I197
Ntp621
I1
s(I416
I389
I115
tp622
I11
s(I157
I165
Ntp623
I1
s(I383
I229
I119
tp624
I1
s(I238
I197
Ntp625
I1
s(I357
I133
I115
tp626
I1
s(I393
I133
Ntp627
I1
s(I256
I421
I100
tp628
I68
s(I256
I229
I119
tp629
I2
s(I281
I229
I97
tp630
I1
s(I117
I101
I100
tp631
I1
s(I125
I229
Ntp632
I1
s(I378
I197
Ntp633
I1
s(I192
I357
Ntp634
I12
s(I402
I133
Ntp635
I1
s(I157
I229
I97
tp636
I1
s(I64
I485
I115
tp637
I82
s(I352
I389
I97
tp638
I18
s(I372
I165
I100
tp639
I1
s(I32
I357
I119
tp640
I9
s(I158
I197
I100
tp641
I1
s(I151
I101
I97
tp642
I1
s(I265
I197
I97
tp643
I1
s(I307
I165
Ntp644
I1
s(I416
I389
I100
tp645
I10
s(I416
I485
I115
tp646
I50
s(I125
I325
I100
tp647
I1
s(I57
I197
I97
tp648
I1
s(I128
I357
I119
tp649
I15
s(I64
I421
I97
tp650
I41
s(I219
I165
I115
tp651
I1
s(I105
I133
I119
tp652
I1
s(I256
I485
Ntp653
I157
s(I217
I165
I119
tp654
I1
s(I313
I101
Ntp655
I1
s(I305
I197
I119
tp656
I1
s(I387
I165
Ntp657
I1
s(I0
I453
Ntp658
I27
s(I64
I485
I100
tp659
I76
s(I64
I261
I115
tp660
I3
s(I344
I133
Ntp661
I1
s(I32
I453
I119
tp662
I49
s(I123
I133
I115
tp663
I1
s(I303
I133
I115
tp664
I1
s(I416
I485
I100
tp665
I44
s(I416
I325
I115
tp666
I5
s(I25
I197
I115
tp667
I1
s(I312
I197
Ntp668
I1
s(I306
I229
I97
tp669
I1
s(I390
I165
I97
tp670
I1
s(I155
I197
I119
tp671
I1
s(I181
I229
Ntp672
I1
s(I108
I229
I119
tp673
I1
s(I336
I133
I97
tp674
I1
s(I311
I165
I115
tp675
I1
s(I320
I421
I97
tp676
I49
s(I307
I165
I97
tp677
I1
s(I151
I165
I119
tp678
I1
s(I408
I101
Ntp679
I1
s(I377
I133
I115
tp680
I1
s(I409
I165
I97
tp681
I1
s(I217
I197
I119
tp682
I1
s(I379
I261
I100
tp683
I1
s(I123
I165
Ntp684
I1
s(I242
I197
I100
tp685
I1
s(I128
I229
Ntp686
I1
s(I370
I229
Ntp687
I1
s(I64
I261
I100
tp688
I2
s(I192
I293
I115
tp689
I6
s(I181
I165
I97
tp690
I1
s(I123
I101
I115
tp691
I1
s(I385
I165
Ntp692
I1
s(I200
I197
I115
tp693
I1
s(I416
I325
I100
tp694
I5
s(I267
I229
Ntp695
I1
s(I384
I421
I119
tp696
I26
s(I226
I197
I97
tp697
I1
s(I407
I197
Ntp698
I1
s(I392
I197
I119
tp699
I1
s(I224
I389
I115
tp700
I32
s(I221
I197
I100
tp701
I1
s(I345
I229
I119
tp702
I1
s(I401
I229
I97
tp703
I1
s(I379
I229
I100
tp704
I1
s(I64
I453
Ntp705
I65
s(I192
I293
I100
tp706
I5
s(I192
I325
I115
tp707
I12
s(I408
I261
Ntp708
I1
s(I412
I165
I115
tp709
I1
s(I161
I101
I100
tp710
I1
s(I181
I197
I97
tp711
I1
s(I288
I293
I100
tp712
I6
s(I153
I133
I115
tp713
I1
s(I32
I261
I97
tp714
I2
s(I384
I325
I119
tp715
I13
s(I127
I133
I115
tp716
I1
s(I141
I229
I97
tp717
I1
s(I371
I133
I115
tp718
I1
s(I352
I229
Ntp719
I2
s(I224
I389
I100
tp720
I28
s(I224
I357
I115
tp721
I14
s(I349
I229
I100
tp722
I1
s(I106
I229
Ntp723
I1
s(I228
I229
Ntp724
I1
s(I232
I197
I115
tp725
I1
s(I320
I133
Ntp726
I1
s(I192
I325
I100
tp727
I16
s(I192
I485
I115
tp728
I172
s(I166
I133
I115
tp729
I1
s(I21
I197
I115
tp730
I1
s(I29
I197
I100
tp731
I1
s(I168
I197
I119
tp732
I1
s(I93
I261
I97
tp733
I1
s(I416
I165
I119
tp734
I1
s(I32
I357
I97
tp735
I8
s(I258
I197
I100
tp736
I1
s(I269
I197
I97
tp737
I1
s(I350
I101
I97
tp738
I1
s(I189
I165
I119
tp739
I1
s(I224
I197
Ntp740
I1
s(I224
I357
I100
tp741
I13
s(I352
I325
I115
tp742
I9
s(I128
I357
I97
tp743
I14
s(I387
I133
I119
tp744
I1
s(I192
I485
I100
tp745
I158
s(I160
I453
I119
tp746
I80
s(I71
I133
I119
tp747
I1
s(I416
I325
Ntp748
I5
s(I272
I229
Ntp749
I1
s(I134
I101
Ntp750
I1
s(I288
I325
Ntp751
I12
s(I405
I165
I119
tp752
I1
s(I32
I453
I97
tp753
I41
s(I414
I101
I115
tp754
I1
s(I368
I229
Ntp755
I1
s(I408
I261
I119
tp756
I1
s(I112
I197
I115
tp757
I1
s(I361
I165
I119
tp758
I1
s(I32
I357
Ntp759
I10
s(I352
I325
I100
tp760
I11
s(I352
I293
I115
tp761
I6
s(I128
I261
I97
tp762
I3
s(I376
I165
Ntp763
I1
s(I64
I293
I119
tp764
I4
s(I42
I101
Ntp765
I1
s(I38
I197
I119
tp766
I1
s(I345
I229
Ntp767
I1
s(I372
I229
I97
tp768
I1
s(I238
I197
I100
tp769
I1
s(I206
I165
I115
tp770
I1
s(I114
I101
Ntp771
I1
s(I154
I133
I115
tp772
I1
s(I413
I165
I97
tp773
I1
s(I160
I293
I119
tp774
I6
s(I199
I165
I119
tp775
I1
s(I283
I229
I119
tp776
I1
s(I184
I165
I119
tp777
I1
s(I379
I229
I115
tp778
I1
s(I369
I133
Ntp779
I1
s(I320
I261
Ntp780
I4
s(I381
I165
Ntp781
I1
s(I372
I165
Ntp782
I1
s(I270
I197
Ntp783
I1
s(I407
I133
I119
tp784
I1
s(I371
I133
Ntp785
I1
s(I157
I229
I115
tp786
I1
s(I352
I293
I100
tp787
I6
s(I352
I389
I115
tp788
I19
s(I213
I101
I119
tp789
I1
s(I384
I421
I97
tp790
I34
s(I64
I325
I119
tp791
I8
s(I120
I165
I100
tp792
I1
s(I93
I133
I100
tp793
I1
s(I243
I101
I97
tp794
I1
s(I314
I165
I119
tp795
I1
s(I253
I197
I119
tp796
I1
s(I139
I197
I100
tp797
I1
s(I289
I197
Ntp798
I1
s(I152
I133
Ntp799
I1
s(I288
I261
I119
tp800
I6
s(I372
I229
Ntp801
I1
s(I397
I197
Ntp802
I1
s(I197
I229
I97
tp803
I1
s(I265
I229
Ntp804
I1
s(I93
I101
I97
tp805
I1
s(I381
I229
I100
tp806
I1
s(I290
I165
I115
tp807
I1
s(I155
I133
I100
tp808
I1
s(I101
I101
I119
tp809
I1
s(I361
I229
Ntp810
I1
s(I96
I357
Ntp811
I14
s(I29
I261
I115
tp812
I1
s(I352
I389
I100
tp813
I17
s(I256
I197
I97
tp814
I1
s(I320
I485
I119
tp815
I92
s(I376
I261
I100
tp816
I1
s(I112
I101
I100
tp817
I1
s(I337
I197
Ntp818
I1
s(I375
I133
I115
tp819
I1
s(I393
I165
Ntp820
I1
s(I384
I421
Ntp821
I36
s(I132
I197
I97
tp822
I1
s(I125
I325
I97
tp823
I1
s(I288
I357
I119
tp824
I18
s(I401
I133
I115
tp825
I1
s(I307
I165
I119
tp826
I1
s(I256
I421
I97
tp827
I68
s(I128
I389
Ntp828
I21
s(I192
I325
I119
tp829
I11
s(I409
I165
I115
tp830
I1
s(I180
I197
I100
tp831
I1
s(I224
I325
I119
tp832
I11
s(I185
I197
Ntp833
I1
s(I334
I197
Ntp834
I1
s(I328
I197
Ntp835
I1
s(I410
I165
Ntp836
I1
s(I174
I101
I97
tp837
I1
s(I317
I165
I119
tp838
I1
s(I203
I165
I119
tp839
I1
s(I131
I197
I97
tp840
I1
s(I320
I261
I119
tp841
I5
s(I241
I197
I97
tp842
I1
s(I194
I197
Ntp843
I1
s(I191
I165
I119
tp844
I1
s(I365
I165
I100
tp845
I1
s(I189
I197
I100
tp846
I1
s(I256
I453
Ntp847
I109
s(I288
I453
I119
tp848
I80
s(I379
I229
Ntp849
I1
s(I324
I133
Ntp850
I1
s(I0
I421
Ntp851
I13
s(I316
I101
Ntp852
I1
s(I160
I453
I97
tp853
I104
s(I224
I293
I119
tp854
I6
s(I95
I197
I119
tp855
I1
s(I401
I229
Ntp856
I1
s(I298
I229
Ntp857
I1
s(I253
I229
Ntp858
I1
s(I103
I165
I119
tp859
I1
s(I127
I133
I97
tp860
I1
s(I408
I261
I97
tp861
I1
s(I315
I229
I119
tp862
I1
s(I211
I101
I119
tp863
I1
s(I160
I389
Ntp864
I21
s(I358
I165
I100
tp865
I1
s(I105
I101
I100
tp866
I1
s(I32
I261
I115
tp867
I3
s(I64
I293
I97
tp868
I5
s(I327
I165
I119
tp869
I1
s(I206
I165
I97
tp870
I1
s(I398
I165
I119
tp871
I1
s(I221
I197
I97
tp872
I1
s(I160
I293
I97
tp873
I5
s(I96
I261
I119
tp874
I2
s(I96
I389
I100
tp875
I18
s(I383
I229
I115
tp876
I1
s(I258
I229
Ntp877
I1
s(I223
I229
I119
tp878
I1
s(I357
I133
I119
tp879
I1
s(I193
I133
I115
tp880
I1
s(I196
I197
I100
tp881
I1
s(I161
I197
I119
tp882
I1
s(I166
I133
I97
tp883
I1
s(I393
I197
Ntp884
I1
s(I352
I293
Ntp885
I6
s(I93
I261
I115
tp886
I1
s(I32
I261
I100
tp887
I3
s(I267
I197
I100
tp888
I1
s(I64
I325
I97
tp889
I9
s(I367
I165
I100
tp890
I1
s(I405
I229
Ntp891
I1
s(I257
I133
Ntp892
I1
s(I191
I229
I100
tp893
I1
s(I206
I197
I97
tp894
I1
s(I64
I293
Ntp895
I4
s(I349
I229
I97
tp896
I1
s(I128
I357
I115
tp897
I15
s(I288
I261
I97
tp898
I4
s(I280
I229
Ntp899
I1
s(I96
I485
I119
tp900
I74
s(I209
I133
I115
tp901
I1
s(I300
I197
I100
tp902
I1
s(I249
I197
I100
tp903
I1
s(I291
I197
Ntp904
I1
s(I61
I197
I100
tp905
I1
s(I314
I133
I115
tp906
I1
s(I219
I133
Ntp907
I1
s(I125
I165
I119
tp908
I1
s(I352
I133
Ntp909
I1
s(I260
I197
I97
tp910
I1
s(I32
I357
I100
tp911
I9
s(I32
I453
I115
tp912
I75
s(I285
I261
I100
tp913
I1
s(I106
I197
Ntp914
I1
s(I148
I101
Ntp915
I1
s(I106
I197
I115
tp916
I1
s(I390
I197
Ntp917
I1
s(I349
I261
I97
tp918
I1
s(I128
I261
I115
tp919
I3
s(I288
I357
I97
tp920
I15
s(I353
I165
I100
tp921
I1
s(I152
I133
I115
tp922
I1
s(I372
I229
I115
tp923
I1
s(I301
I133
I115
tp924
I1
s(I197
I133
I115
tp925
I1
s(I224
I325
I97
tp926
I18
s(I262
I197
I97
tp927
I1
s(I315
I261
I119
tp928
I1
s(I162
I101
I97
tp929
I1
s(I365
I133
Ntp930
I1
s(I160
I421
Ntp931
I63
s(I186
I101
I97
tp932
I1
s(I395
I165
I115
tp933
I1
s(I318
I101
Ntp934
I1
s(I320
I261
I97
tp935
I3
s(I0
I293
I119
tp936
I2
s(I354
I197
Ntp937
I1
s(I344
I165
I100
tp938
I1
s(I228
I197
I100
tp939
I1
s(I123
I101
Ntp940
I1
s(I128
I261
I100
tp941
I3
s(I384
I421
I115
tp942
I37
s(I317
I197
I97
tp943
I1
s(I288
I453
I97
tp944
I93
s(I272
I197
Ntp945
I1
s(I192
I229
I97
tp946
I1
s(I288
I357
Ntp947
I18
s(I289
I101
I119
tp948
I1
s(I224
I293
I97
tp949
I5
s(I170
I229
Ntp950
I1
s(I391
I165
Ntp951
I1
s(I255
I133
I97
tp952
I1
s(I368
I165
I100
tp953
I1
s(I235
I229
I100
tp954
I1
s(I406
I165
I119
tp955
I1
s(I32
I389
Ntp956
I18
s(I403
I165
Ntp957
I1
s(I385
I101
I119
tp958
I1
s(I413
I197
I100
tp959
I1
s(I376
I197
Ntp960
I1
s(I0
I453
I119
tp961
I27
s(I345
I197
Ntp962
I1
s(I305
I197
Ntp963
I1
s(I235
I229
I119
tp964
I1
s(I384
I421
I100
tp965
I23
s(I203
I197
I100
tp966
I1
s(I103
I229
I100
tp967
I1
s(I351
I229
I119
tp968
I1
s(I194
I165
I97
tp969
I1
s(I396
I165
I97
tp970
I1
s(I388
I197
Ntp971
I1
s(I392
I165
I115
tp972
I1
s(I320
I357
Ntp973
I14
s(I262
I197
I100
tp974
I1
s(I96
I261
I97
tp975
I2
s(I316
I133
Ntp976
I1
s(I324
I165
I119
tp977
I1
s(I210
I197
I100
tp978
I1
s(I96
I421
Ntp979
I46
s(I146
I101
Ntp980
I1
s(I32
I229
I115
tp981
I1
s(I381
I229
I97
tp982
I1
s(I394
I197
Ntp983
I1
s(I291
I229
Ntp984
I1
s(I128
I357
I100
tp985
I14
s(I61
I229
I97
tp986
I1
s(I256
I357
Ntp987
I13
s(I178
I165
Ntp988
I1
s(I384
I325
I100
tp989
I8
s(I405
I229
I100
tp990
I1
s(I231
I197
I100
tp991
I1
s(I350
I197
I119
tp992
I1
s(I347
I165
Ntp993
I1
s(I132
I101
Ntp994
I1
s(I128
I229
I97
tp995
I1
s(I96
I485
I97
tp996
I92
s(I363
I197
Ntp997
I1
s(I308
I229
Ntp998
I1
s(I324
I197
I119
tp999
I1
s(I161
I165
I97
tp1000
I1
s(I160
I453
I115
tp1001
I99
s(I111
I101
I100
tp1002
I1
s(I379
I261
I119
tp1003
I1
s(I29
I261
I100
tp1004
I1
s(I384
I389
Ntp1005
I16
s(I326
I133
I97
tp1006
I1
s(I224
I229
Ntp1007
I1
s(I305
I165
I119
tp1008
I1
s(I315
I133
I115
tp1009
I1
s(I319
I197
Ntp1010
I1
s(I384
I229
I119
tp1011
I1
s(I201
I165
I119
tp1012
I1
s(I29
I197
I119
tp1013
I1
s(I128
I357
Ntp1014
I17
s(I64
I293
I115
tp1015
I5
s(I235
I229
Ntp1016
I1
s(I185
I229
Ntp1017
I1
s(I384
I325
I97
tp1018
I9
s(I324
I101
I119
tp1019
I1
s(I375
I165
I100
tp1020
I1
s(I221
I197
I115
tp1021
I1
s(I160
I453
I100
tp1022
I95
s(I160
I293
I115
tp1023
I5
s(I111
I197
I100
tp1024
I1
s(I152
I165
I119
tp1025
I1
s(I153
I197
I100
tp1026
I1
s(I315
I165
Ntp1027
I1
s(I270
I165
I115
tp1028
I1
s(I321
I101
I119
tp1029
I1
s(I0
I293
I97
tp1030
I2
s(I384
I229
I100
tp1031
I1
s(I224
I197
I97
tp1032
I1
s(I157
I229
I119
tp1033
I1
s(I253
I229
I115
tp1034
I1
s(I64
I293
I100
tp1035
I5
s(I64
I325
I115
tp1036
I7
s(I370
I197
I115
tp1037
I1
s(I64
I325
Ntp1038
I8
s(I131
I133
Ntp1039
I1
s(I300
I197
Ntp1040
I1
s(I347
I229
I100
tp1041
I1
s(I165
I261
I119
tp1042
I1
s(I401
I197
Ntp1043
I1
s(I371
I229
I100
tp1044
I1
s(I349
I229
I115
tp1045
I1
s(I160
I293
I100
tp1046
I5
s(I288
I261
I115
tp1047
I4
s(I350
I229
Ntp1048
I1
s(I128
I101
I100
tp1049
I1
s(I128
I453
I119
tp1050
I69
s(I125
I261
Ntp1051
I1
s(I152
I197
I119
tp1052
I1
s(I140
I133
Ntp1053
I1
s(I311
I229
I115
tp1054
I1
s(I0
I453
I97
tp1055
I27
s(I120
I101
Ntp1056
I1
s(I398
I197
Ntp1057
I1
s(I133
I229
I97
tp1058
I1
s(I29
I261
I119
tp1059
I1
s(I186
I133
I119
tp1060
I1
s(I267
I197
I97
tp1061
I1
s(I64
I325
I100
tp1062
I9
s(I320
I485
I115
tp1063
I109
s(I33
I197
I100
tp1064
I1
s(I288
I261
I100
tp1065
I4
s(I288
I357
I115
tp1066
I15
s(I321
I229
Ntp1067
I1
s(I384
I357
I119
tp1068
I14
s(I277
I229
I97
tp1069
I1
s(I404
I133
I115
tp1070
I1
s(I403
I197
Ntp1071
I1
s(I342
I229
I119
tp1072
I1
s(I352
I453
Ntp1073
I68
s(I224
I325
I115
tp1074
I14
s(I189
I229
I97
tp1075
I1
s(I123
I197
Ntp1076
I1
s(I110
I101
I100
tp1077
I1
s(I320
I485
I100
tp1078
I99
s(I320
I261
I115
tp1079
I3
s(I231
I197
Ntp1080
I1
s(I393
I165
I97
tp1081
I1
s(I288
I197
Ntp1082
I1
s(I288
I357
I100
tp1083
I14
s(I288
I453
I115
tp1084
I98
s(I257
I197
Ntp1085
I1
s(I384
I261
I119
tp1086
I5
s(I31
I165
I100
tp1087
I1
s(I160
I357
Ntp1088
I12
s(I224
I325
I100
tp1089
I17
s(I224
I293
I115
tp1090
I6
s(I359
I133
Ntp1091
I1
s(I357
I165
I100
tp1092
I1
s(I313
I197
Ntp1093
I1
s(I95
I197
I115
tp1094
I1
s(I360
I229
Ntp1095
I1
s(I390
I165
Ntp1096
I1
s(I320
I261
I100
tp1097
I4
s(I181
I197
I119
tp1098
I1
s(I160
I165
I119
tp1099
I1
s(I319
I133
I115
tp1100
I1
s(I146
I133
I119
tp1101
I1
s(I416
I421
Ntp1102
I12
s(I288
I453
I100
tp1103
I93
s(I256
I293
I119
tp1104
I10
s(I135
I197
I100
tp1105
I1
s(I281
I197
I100
tp1106
I1
s(I27
I229
I100
tp1107
I1
s(I398
I165
I115
tp1108
I1
s(I160
I453
Ntp1109
I93
s(I224
I293
I100
tp1110
I6
s(I96
I261
I115
tp1111
I3
s(I252
I229
Ntp1112
I1
s(I387
I197
I119
tp1113
I1
s(I285
I229
Ntp1114
I1
s(I391
I165
I119
tp1115
I1
s(I223
I229
I115
tp1116
I1
s(I183
I197
I97
tp1117
I1
s(I151
I133
I100
tp1118
I1
s(I381
I229
I115
tp1119
I1
s(I160
I261
I119
tp1120
I3
s(I310
I197
Ntp1121
I1
s(I155
I133
I119
tp1122
I1
s(I93
I261
I119
tp1123
I1
s(I233
I197
I100
tp1124
I1
s(I256
I453
I119
tp1125
I93
s(I106
I165
I119
tp1126
I1
s(I364
I165
I119
tp1127
I1
s(I201
I197
I97
tp1128
I1
s(I224
I357
Ntp1129
I16
s(I55
I229
I100
tp1130
I1
s(I389
I133
Ntp1131
I1
s(I96
I261
I100
tp1132
I3
s(I96
I485
I115
tp1133
I94
s(I128
I453
I97
tp1134
I89
s(I316
I133
I115
tp1135
I1
s(I157
I261
Ntp1136
I1
s(I170
I165
I115
tp1137
I1
s(I138
I133
I100
tp1138
I1
s(I353
I229
Ntp1139
I1
s(I160
I357
I119
tp1140
I12
s(I185
I197
I100
tp1141
I1
s(I133
I229
I115
tp1142
I1
s(I388
I165
Ntp1143
I1
s(I302
I229
I115
tp1144
I1
s(I405
I229
I97
tp1145
I1
s(I192
I197
Ntp1146
I1
s(I275
I165
I119
tp1147
I1
s(I407
I197
I119
tp1148
I1
s(I352
I325
Ntp1149
I9
s(I96
I485
I100
tp1150
I89
s(I256
I229
I97
tp1151
I1
s(I64
I389
I119
tp1152
I17
s(I372
I229
I119
tp1153
I1
s(I177
I165
I115
tp1154
I1
s(I309
I165
I119
tp1155
I1
s(I195
I165
I119
tp1156
I1
s(I416
I453
I119
tp1157
I26
s(I406
I197
I115
tp1158
I1
s(I233
I197
I97
tp1159
I1
s(I395
I165
I119
tp1160
I1
s(I0
I293
I115
tp1161
I2
s(I320
I325
I100
tp1162
I11
s(I363
I165
Ntp1163
I1
s(I381
I197
Ntp1164
I1
s(I323
I229
Ntp1165
I1
s(I278
I197
I97
tp1166
I1
s(I288
I197
I97
tp1167
I1
s(I256
I133
I97
tp1168
I1
s(I395
I229
Ntp1169
I1
s(I372
I261
I119
tp1170
I1
s(I415
I165
I97
tp1171
I1
s(I27
I229
I115
tp1172
I1
s(I325
I165
I119
tp1173
I1
s(I314
I197
Ntp1174
I1
s(I119
I101
Ntp1175
I1
s(I416
I293
I119
tp1176
I4
s(I25
I229
I119
tp1177
I1
s(I162
I197
I100
tp1178
I1
s(I400
I133
Ntp1179
I1
s(I319
I229
Ntp1180
I1
s(I192
I389
Ntp1181
I23
s(I0
I293
I100
tp1182
I3
s(I0
I453
I115
tp1183
I28
s(I291
I261
I119
tp1184
I1
s(I148
I165
I119
tp1185
I1
s(I259
I197
Ntp1186
I1
s(I278
I165
I97
tp1187
I1
s(I322
I165
I119
tp1188
I1
s(I287
I197
I100
tp1189
I1
s(I421
I133
I97
tp1190
I1
s(I225
I229
I97
tp1191
I1
s(I411
I165
Ntp1192
I1
s(I256
I293
I97
tp1193
I7
s(I320
I325
I119
tp1194
I9
s(I280
I165
I97
tp1195
I1
s(I384
I357
I97
tp1196
I10
s(I126
I101
Ntp1197
I1
s(I359
I133
I115
tp1198
I1
s(I378
I133
Ntp1199
I1
s(I64
I421
Ntp1200
I40
s(I0
I453
I100
tp1201
I34
s(I128
I229
I115
tp1202
I1
s(I160
I261
I97
tp1203
I4
s(I224
I485
I119
tp1204
I205
s(I368
I133
I115
tp1205
I1
s(I322
I197
I119
tp1206
I1
s(I155
I101
I97
tp1207
I1
s(I285
I229
I97
tp1208
I1
s(I104
I197
I119
tp1209
I1
s(I317
I229
I97
tp1210
I1
s(I256
I453
I97
tp1211
I109
s(I320
I229
I119
tp1212
I1
s(I350
I197
I115
tp1213
I1
s(I44
I197
I119
tp1214
I1
s(I256
I293
Ntp1215
I7
s(I133
I101
Ntp1216
I1
s(I157
I101
I97
tp1217
I1
s(I153
I165
I119
tp1218
I1
s(I327
I101
I119
tp1219
I1
s(I88
I101
I97
tp1220
I1
s(I61
I261
I97
tp1221
I1
s(I167
I197
I100
tp1222
I1
s(I394
I165
I115
tp1223
I1
s(I354
I229
I119
tp1224
I1
s(I389
I101
I115
tp1225
I1
s(I178
I229
I100
tp1226
I1
s(I0
I261
Ntp1227
I1
s(I128
I229
I100
tp1228
I1
s(I160
I357
I97
tp1229
I15
s(I96
I453
I119
tp1230
I56
s(I184
I101
I97
tp1231
I1
s(I383
I165
I115
tp1232
I1
s(I322
I101
Ntp1233
I1
s(I99
I165
I119
tp1234
I1
s(I192
I389
I119
tp1235
I21
s(I345
I165
I100
tp1236
I1
s(I327
I165
I97
tp1237
I1
s(I64
I389
I97
tp1238
I20
s(I156
I101
I97
tp1239
I1
s(I355
I229
Ntp1240
I1
s(I123
I229
Ntp1241
I1
s(I279
I197
Ntp1242
I1
s(I61
I261
I115
tp1243
I1
s(I416
I453
I97
tp1244
I35
s(I96
I421
I119
tp1245
I32
s(I276
I197
I119
tp1246
I1
s(I98
I197
I100
tp1247
I1
s(I237
I197
I97
tp1248
I1
s(I233
I197
I115
tp1249
I1
s(I288
I229
Ntp1250
I1
s(I115
I101
Ntp1251
I1
s(I397
I165
I115
tp1252
I1
s(I351
I229
Ntp1253
I1
s(I329
I133
I115
tp1254
I1
s(I400
I165
I97
tp1255
I1
s(I407
I133
Ntp1256
I1
s(I253
I229
I119
tp1257
I1
s(I416
I389
Ntp1258
I10
s(I108
I197
I115
tp1259
I1
s(I313
I229
I115
tp1260
I1
s(I320
I293
I97
tp1261
I5
s(I408
I229
Ntp1262
I1
s(I288
I229
I115
tp1263
I1
s(I396
I197
I119
tp1264
I1
s(I247
I197
I97
tp1265
I1
s(I46
I165
I100
tp1266
I1
s(I349
I229
I119
tp1267
I1
s(I64
I389
Ntp1268
I20
s(I128
I453
I115
tp1269
I82
s(I416
I293
I97
tp1270
I4
s(I352
I261
I119
tp1271
I6
s(I164
I165
I97
tp1272
I1
s(I64
I229
I115
tp1273
I1
s(I91
I229
Ntp1274
I1
s(I346
I133
Ntp1275
I1
s(I388
I165
I97
tp1276
I1
s(I192
I197
I97
tp1277
I1
s(I0
I485
I119
tp1278
I34
s(I405
I229
I115
tp1279
I1
s(I295
I197
Ntp1280
I1
s(I153
I165
Ntp1281
I1
s(I380
I101
I97
tp1282
I1
s(I80
I229
I97
tp1283
I1
s(I386
I165
I97
tp1284
I1
s(I349
I261
I119
tp1285
I1
s(I129
I133
I97
tp1286
I1
s(I110
I229
I119
tp1287
I1
s(I128
I453
I100
tp1288
I81
s(I256
I229
I115
tp1289
I1
s(I320
I229
I100
tp1290
I1
s(I352
I485
I119
tp1291
I76
s(I367
I133
Ntp1292
I1
s(I152
I101
I115
tp1293
I1
s(I411
I261
I100
tp1294
I1
s(I416
I165
I97
tp1295
I1
s(I335
I197
I97
tp1296
I1
s(I299
I165
I100
tp1297
I1
s(I224
I485
I97
tp1298
I213
s(I116
I197
I100
tp1299
I1
s(I281
I229
Ntp1300
I1
s(I274
I197
I97
tp1301
I1
s(I224
I261
Ntp1302
I3
s(I192
I357
I97
tp1303
I12
s(I0
I389
I119
tp1304
I9
s(I308
I197
I97
tp1305
I1
s(I420
I133
I119
tp1306
I1
s(I384
I357
I100
tp1307
I9
s(I384
I261
I115
tp1308
I4
s(I386
I229
I97
tp1309
I1
s(I128
I485
Ntp1310
I106
s(I160
I389
I100
tp1311
I22
s(I368
I165
Ntp1312
I1
s(I396
I133
Ntp1313
I1
s(I384
I261
I97
tp1314
I4
s(I297
I165
I119
tp1315
I1
s(I196
I101
I119
tp1316
I1
s(I32
I293
Ntp1317
I5
s(I320
I293
I119
tp1318
I7
s(I192
I389
I97
tp1319
I23
s(I380
I197
I115
tp1320
I1
s(I365
I165
I119
tp1321
I1
s(I138
I229
I119
tp1322
I1
s(I193
I101
I119
tp1323
I1
s(I384
I261
I100
tp1324
I3
s(I256
I293
I115
tp1325
I6
s(I93
I325
I100
tp1326
I1
s(I226
I197
I100
tp1327
I1
s(I262
I197
Ntp1328
I1
s(I320
I453
Ntp1329
I79
s(I367
I229
I100
tp1330
I1
s(I317
I261
I100
tp1331
I1
s(I381
I229
Ntp1332
I1
s(I182
I165
I100
tp1333
I1
s(I258
I165
I119
tp1334
I1
s(I381
I229
I119
tp1335
I1
s(I424
I165
I97
tp1336
I1
s(I32
I293
I100
tp1337
I5
s(I160
I261
I115
tp1338
I3
s(I412
I101
Ntp1339
I1
s(I255
I229
I119
tp1340
I1
s(I317
I229
I115
tp1341
I1
s(I256
I293
I100
tp1342
I7
s(I256
I453
I115
tp1343
I119
s(I89
I261
I119
tp1344
I1
s(I326
I165
I119
tp1345
I1
s(I384
I357
Ntp1346
I11
s(I245
I197
Ntp1347
I1
s(I397
I133
Ntp1348
I1
s(I192
I485
Ntp1349
I157
s(I384
I133
Ntp1350
I1
s(I292
I165
I97
tp1351
I1
s(I316
I133
I119
tp1352
I1
s(I352
I261
I97
tp1353
I4
s(I88
I101
I115
tp1354
I1
s(I91
I133
I119
tp1355
I1
s(I394
I165
I97
tp1356
I1
s(I411
I261
I115
tp1357
I1
s(I164
I165
I115
tp1358
I1
s(I160
I261
I100
tp1359
I3
s(I160
I357
I115
tp1360
I12
s(I128
I485
I119
tp1361
I87
s(I337
I133
Ntp1362
I1
s(I302
I133
I100
tp1363
I1
s(I232
I229
I97
tp1364
I1
s(I388
I165
I115
tp1365
I1
s(I193
I165
I119
tp1366
I1
s(I367
I165
I119
tp1367
I1
s(I220
I101
I119
tp1368
I1
s(I0
I485
I97
tp1369
I36
s(I131
I133
I119
tp1370
I1
s(I408
I229
I115
tp1371
I1
s(I117
I229
Ntp1372
I1
s(I285
I229
I100
tp1373
I1
s(I168
I229
I100
tp1374
I1
s(I128
I453
Ntp1375
I77
s(I157
I261
I97
tp1376
I1
s(I64
I389
I115
tp1377
I21
s(I352
I485
I97
tp1378
I83
s(I32
I325
I119
tp1379
I7
s(I29
I325
Ntp1380
I1
s(I410
I101
Ntp1381
I1
s(I261
I229
Ntp1382
I1
s(I160
I357
I100
tp1383
I11
s(I416
I453
I115
tp1384
I32
s(I362
I229
I100
tp1385
I1
s(I416
I357
I100
tp1386
I6
s(I128
I389
I119
tp1387
I20
s(I394
I165
Ntp1388
I1
s(I288
I325
I115
tp1389
I11
s(I61
I261
I100
tp1390
I1
s(I183
I165
I115
tp1391
I1
s(I358
I229
Ntp1392
I1
s(I256
I261
Ntp1393
I5
s(I0
I389
I97
tp1394
I9
s(I169
I197
I97
tp1395
I1
s(I255
I165
I100
tp1396
I1
s(I333
I133
Ntp1397
I1
s(I196
I197
Ntp1398
I1
s(I0
I485
Ntp1399
I36
s(I125
I133
I115
tp1400
I1
s(I64
I389
I100
tp1401
I15
s(I320
I293
I115
tp1402
I6
s(I412
I229
Ntp1403
I1
s(I32
I421
I119
tp1404
I26
s(I27
I229
I119
tp1405
I1
s(I299
I165
Ntp1406
I1
s(I156
I133
Ntp1407
I1
s(I225
I165
I115
tp1408
I1
s(I416
I453
I100
tp1409
I30
s(I416
I293
I115
tp1410
I3
s(I222
I197
Ntp1411
I1
s(I125
I261
I100
tp1412
I1
s(I306
I197
I97
tp1413
I1
s(I369
I133
I115
tp1414
I1
s(I254
I197
I119
tp1415
I1
s(I383
I261
I119
tp1416
I1
s(I171
I101
I97
tp1417
I1
s(I348
I197
Ntp1418
I1
s(I148
I197
I100
tp1419
I1
s(I384
I229
I115
tp1420
I1
s(I251
I229
I100
tp1421
I1
s(I129
I101
I119
tp1422
I1
s(I162
I165
I119
tp1423
I1
s(I207
I133
I115
tp1424
I1
s(I370
I197
Ntp1425
I1
s(I320
I293
I100
tp1426
I5
s(I320
I325
I115
tp1427
I10
s(I89
I229
I97
tp1428
I1
s(I284
I165
I115
tp1429
I1
s(I161
I229
I100
tp1430
I1
s(I416
I293
I100
tp1431
I3
s(I82
I165
I119
tp1432
I1
s(I384
I453
I119
tp1433
I45
s(I249
I197
I119
tp1434
I1
s(I32
I357
I115
tp1435
I9
s(I337
I229
I119
tp1436
I1
s(I141
I101
I97
tp1437
I1
s(I352
I357
Ntp1438
I12
s(I264
I165
I119
tp1439
I1
s(I224
I485
I115
tp1440
I260
s(I85
I229
I97
tp1441
I1
s(I159
I229
I97
tp1442
I1
s(I405
I165
Ntp1443
I1
s(I64
I485
Ntp1444
I77
s(I306
I229
Ntp1445
I1
s(I285
I101
I97
tp1446
I1
s(I192
I357
I115
tp1447
I12
s(I160
I229
I119
tp1448
I1
s(I121
I101
Ntp1449
I1
s(I319
I197
I115
tp1450
I1
s(I315
I197
I97
tp1451
I1
s(I173
I261
I97
tp1452
I1
s(I257
I165
I115
tp1453
I1
s(I353
I165
I119
tp1454
I1
s(I363
I133
I115
tp1455
I1
s(I253
I197
I100
tp1456
I1
s(I256
I485
I119
tp1457
I140
s(I373
I133
I115
tp1458
I1
s(I404
I133
Ntp1459
I1
s(I130
I197
I100
tp1460
I1
s(I411
I261
I97
tp1461
I1
s(I141
I197
I97
tp1462
I1
s(I285
I197
I97
tp1463
I1
s(I145
I165
I100
tp1464
I1
s(I352
I197
Ntp1465
I1
s(I392
I133
I119
tp1466
I1
s(I224
I485
I100
tp1467
I213
s(I96
I453
I115
tp1468
I71
s(I128
I485
I97
tp1469
I108
s(I401
I165
I97
tp1470
I1
s(I96
I229
I97
tp1471
I1
s(I356
I133
I119
tp1472
I1
s(I102
I197
I100
tp1473
I1
s(I293
I229
Ntp1474
I1
s(I192
I357
I100
tp1475
I14
s(I192
I389
I115
tp1476
I30
s(I231
I197
I115
tp1477
I1
s(I61
I293
I97
tp1478
I1
s(I93
I325
Ntp1479
I1
s(I226
I197
Ntp1480
I1
s(I173
I165
I97
tp1481
I1
s(I283
I197
Ntp1482
I1
s(I136
I197
I97
tp1483
I1
s(I288
I453
Ntp1484
I91
s(I255
I197
I97
tp1485
I1
s(I93
I293
I97
tp1486
I1
s(I315
I197
Ntp1487
I1
s(I32
I325
I97
tp1488
I6
s(I256
I389
I119
tp1489
I21
s(I106
I229
I119
tp1490
I1
s(I416
I133
I97
tp1491
I1
s(I365
I197
Ntp1492
I1
s(I61
I261
I119
tp1493
I1
s(I32
I485
Ntp1494
I83
s(I339
I197
Ntp1495
I1
s(I96
I453
I100
tp1496
I70
s(I96
I421
I115
tp1497
I51
s(I391
I165
I97
tp1498
I1
s(I128
I389
I97
tp1499
I19
s(I64
I421
I119
tp1500
I29
s(I389
I165
I97
tp1501
I1
s(I413
I197
I119
tp1502
I1
s(I32
I261
Ntp1503
I3
s(I192
I389
I100
tp1504
I24
s(I160
I421
I119
tp1505
I37
s(I397
I165
I119
tp1506
I1
s(I155
I229
I119
tp1507
I1
s(I173
I197
I97
tp1508
I1
s(I288
I293
Ntp1509
I6
s(I93
I325
I97
tp1510
I1
s(I32
I421
I97
tp1511
I28
s(I29
I229
I115
tp1512
I1
s(I311
I229
Ntp1513
I1
s(I32
I325
Ntp1514
I7
s(I146
I133
Ntp1515
I1
s(I96
I421
I100
tp1516
I45
s(I352
I261
I115
tp1517
I4
s(I317
I261
I97
tp1518
I1
s(I276
I197
I100
tp1519
I1
s(I64
I453
I119
tp1520
I51
s(I318
I165
I100
tp1521
I1
s(I29
I229
Ntp1522
I1
s(I128
I293
I97
tp1523
I5
s(I376
I133
Ntp1524
I1
s(I154
I165
I115
tp1525
I1
s(I217
I229
I97
tp1526
I1
s(I416
I261
I119
tp1527
I3
s(I288
I165
Ntp1528
I1
s(I99
I165
Ntp1529
I1
s(I406
I133
I115
tp1530
I1
s(I183
I229
I119
tp1531
I1
s(I320
I293
Ntp1532
I5
s(I0
I485
I115
tp1533
I40
s(I288
I325
I100
tp1534
I13
s(I191
I229
I97
tp1535
I1
s(I409
I133
Ntp1536
I1
s(I304
I229
Ntp1537
I1
s(I403
I197
I119
tp1538
I1
s(I159
I101
I100
tp1539
I1
s(I96
I485
Ntp1540
I89
s(I352
I261
I100
tp1541
I4
s(I352
I485
I115
tp1542
I88
s(I384
I453
I97
tp1543
I62
s(I64
I357
I119
tp1544
I10
s(I325
I101
I119
tp1545
I1
s(I384
I293
Ntp1546
I7
s(I46
I229
I119
tp1547
I1
s(I303
I165
I119
tp1548
I1
s(I399
I229
Ntp1549
I1
s(I320
I229
I97
tp1550
I1
s(I416
I357
I119
tp1551
I6
s(I318
I133
I115
tp1552
I1
s(I352
I197
I97
tp1553
I1
s(I385
I165
I115
tp1554
I1
s(I265
I197
Ntp1555
I1
s(I128
I261
Ntp1556
I3
s(I0
I485
I100
tp1557
I46
s(I0
I389
I115
tp1558
I9
s(I160
I229
I97
tp1559
I1
s(I224
I453
I119
tp1560
I114
s(I327
I229
Ntp1561
I1
s(I319
I197
I97
tp1562
I1
s(I322
I229
I119
tp1563
I1
s(I287
I133
I100
tp1564
I1
s(I157
I165
I115
tp1565
I1
s(I352
I485
I100
tp1566
I89
s(I256
I485
I97
tp1567
I157
s(I404
I133
I100
tp1568
I1
s(I320
I389
I119
tp1569
I18
s(I384
I453
Ntp1570
I65
s(I230
I197
I100
tp1571
I1
s(I431
I133
I97
tp1572
I1
s(I114
I229
I119
tp1573
I1
s(I288
I325
I119
tp1574
I12
s(I153
I197
I119
tp1575
I1
s(I401
I165
I115
tp1576
I1
s(I144
I101
Ntp1577
I1
s(I61
I325
I100
tp1578
I1
s(I264
I197
I97
tp1579
I1
s(I128
I421
Ntp1580
I54
s(I410
I197
I115
tp1581
I1
s(I331
I133
I97
tp1582
I1
s(I0
I389
I100
tp1583
I10
s(I380
I197
I119
tp1584
I1
s(I385
I197
Ntp1585
I1
s(I224
I421
I119
tp1586
I54
s(I263
I197
Ntp1587
I1
s(I205
I165
I119
tp1588
I1
s(I364
I165
Ntp1589
I1
s(I334
I229
Ntp1590
I1
s(I320
I485
I97
tp1591
I100
s(I260
I229
I119
tp1592
I1
s(I213
I133
I119
tp1593
I1
s(I256
I389
I97
tp1594
I27
s(I192
I421
I119
tp1595
I45
s(I191
I133
I119
tp1596
I1
s(I44
I133
I119
tp1597
I1
s(I187
I229
Ntp1598
I1
s(I150
I165
I119
tp1599
I1
s(I230
I165
I100
tp1600
I1
s(I325
I101
Ntp1601
I1
s(I125
I261
I97
tp1602
I1
s(I157
I197
I100
tp1603
I1
s(I288
I421
I119
tp1604
I42
s(I301
I197
I97
tp1605
I1
s(I389
I165
I115
tp1606
I1
s(I192
I357
I119
tp1607
I18
s(I160
I421
I97
tp1608
I65
s(I224
I261
I119
tp1609
I5
s(I355
I101
I97
tp1610
I1
s(I121
I101
I100
tp1611
I1
s(I182
I197
I119
tp1612
I1
s(I183
I229
Ntp1613
I1
s(I317
I229
I119
tp1614
I1
s(I353
I101
I97
tp1615
I1
s(I411
I261
I119
tp1616
I1
s(I99
I229
I119
tp1617
I1
s(I192
I453
I119
tp1618
I96
s(I253
I197
Ntp1619
I1
s(I103
I133
I119
tp1620
I1
s(I194
I165
I100
tp1621
I1
s(I315
I197
I119
tp1622
I1
s(I319
I101
I119
tp1623
I1
s(I161
I229
Ntp1624
I1
s(I352
I421
Ntp1625
I42
s(I302
I261
I119
tp1626
I1
s(I64
I453
I97
tp1627
I73
s(I163
I101
I115
tp1628
I1
s(I336
I229
Ntp1629
I1
s(I255
I133
Ntp1630
I1
s(I265
I229
I119
tp1631
I1
s(I392
I133
I97
tp1632
I1
s(I320
I421
Ntp1633
I52
s(I398
I197
I119
tp1634
I1
s(I221
I229
I97
tp1635
I1
s(I128
I485
I115
tp1636
I110
s(I245
I133
I119
tp1637
I1
s(I416
I261
I97
tp1638
I2
s(I224
I229
I119
tp1639
I1
s(I184
I133
I97
tp1640
I1
s(I121
I197
I100
tp1641
I1
s(I416
I229
I97
tp1642
I1
s(I388
I165
I119
tp1643
I1
s(I326
I197
Ntp1644
I1
s(I231
I101
I119
tp1645
I1
s(I190
I101
I97
tp1646
I1
s(I194
I197
I100
tp1647
I1
s(I384
I165
Ntp1648
I1
s(I159
I101
Ntp1649
I1
s(I292
I165
Ntp1650
I1
s(I352
I261
Ntp1651
I4
s(I93
I293
I115
tp1652
I1
s(I253
I197
I97
tp1653
I1
s(I32
I325
I115
tp1654
I7
s(I64
I357
I97
tp1655
I11
s(I359
I229
Ntp1656
I1
s(I112
I229
Ntp1657
I1
s(I405
I197
Ntp1658
I1
s(I127
I165
I119
tp1659
I1
s(I215
I197
I100
tp1660
I1
s(I128
I485
I100
tp1661
I106
s(I128
I389
I115
tp1662
I27
s(I288
I229
I97
tp1663
I1
s(I352
I453
I119
tp1664
I50
s(I369
I229
Ntp1665
I1
s(I416
I261
Ntp1666
I2
s(I171
I197
I100
tp1667
I1
s(I224
I453
I97
tp1668
I132
s(I246
I229
Ntp1669
I1
s(I214
I197
I97
tp1670
I1
s(I154
I133
Ntp1671
I1
s(I125
I133
I119
tp1672
I1
s(I160
I293
Ntp1673
I5
s(I32
I325
I100
tp1674
I7
s(I32
I421
I115
tp1675
I37
s(I242
I229
I119
tp1676
I1
s(I281
I197
I119
tp1677
I1
s(I61
I293
I100
tp1678
I1
s(I123
I229
I119
tp1679
I1
s(I360
I165
Ntp1680
I1
s(I319
I165
I100
tp1681
I1
s(I23
I197
Ntp1682
I1
s(I390
I229
Ntp1683
I1
s(I329
I229
Ntp1684
I1
s(I385
I165
I97
tp1685
I1
s(I128
I389
I100
tp1686
I19
s(I128
I293
I115
tp1687
I5
s(I288
I325
I97
tp1688
I13
s(I352
I421
I119
tp1689
I29
s(I268
I197
I97
tp1690
I1
s(I366
I165
I115
tp1691
I1
s(I288
I485
Ntp1692
I123
s(I224
I421
I97
tp1693
I74
s(I114
I197
I115
tp1694
I1
s(I401
I197
I119
tp1695
I1
s(I256
I453
I100
tp1696
I110
s(I346
I229
Ntp1697
I1
s(I136
I165
I100
tp1698
I1
s(I93
I229
I115
tp1699
I1
s(I32
I421
I100
tp1700
I35
s(I192
I421
I97
tp1701
I72
s(I0
I325
I119
tp1702
I3
s(I414
I165
I97
tp1703
I1
s(I86
I133
I119
tp1704
I1
s(I69
I101
I100
tp1705
I1
s(I128
I293
I100
tp1706
I5
s(I384
I453
I115
tp1707
I67
s(I249
I197
I115
tp1708
I1
s(I288
I421
I97
tp1709
I58
s(I213
I229
I115
tp1710
I1
s(I249
I197
Ntp1711
I1
s(I103
I101
I100
tp1712
I1
s(I310
I197
I119
tp1713
I1
s(I357
I197
Ntp1714
I1
s(I224
I261
I97
tp1715
I3
s(I209
I197
I100
tp1716
I1
s(I392
I229
Ntp1717
I1
s(I307
I133
I115
tp1718
I1
s(I224
I421
Ntp1719
I70
s(I288
I229
I119
tp1720
I2
s(I192
I453
I97
tp1721
I119
s(I414
I197
I97
tp1722
I1
s(I290
I197
Ntp1723
I1
s(I339
I133
Ntp1724
I1
s(I235
I261
I119
tp1725
I1
s(I384
I453
I100
tp1726
I42
s(I256
I485
I115
tp1727
I175
s(I32
I453
I100
tp1728
I60
s(I352
I229
I119
tp1729
I2
s(I96
I357
I115
tp1730
I14
s(I224
I421
I115
tp1731
I81
s(I383
I165
Ntp1732
I1
s(I371
I165
I119
tp1733
I1
s(I388
I229
Ntp1734
I1
s(I392
I133
I115
tp1735
I1
s(I198
I197
Ntp1736
I1
s(I341
I133
Ntp1737
I1
s(I395
I133
Ntp1738
I1
s(I96
I357
I97
tp1739
I15
s(I362
I229
Ntp1740
I1
s(I108
I101
I100
tp1741
I1
s(I323
I133
Ntp1742
I1
s(I96
I389
Ntp1743
I23
s(I164
I133
I115
tp1744
I1
s(I107
I197
I100
tp1745
I1
s(I318
I133
Ntp1746
I1
s(I148
I101
I115
tp1747
I1
s(I155
I165
I97
tp1748
I1
s(I321
I197
Ntp1749
I1
s(I384
I261
Ntp1750
I4
s(I256
I485
I100
tp1751
I159
s(I256
I389
I115
tp1752
I33
s(I144
I133
I100
tp1753
I1
s(I384
I485
Ntp1754
I78
s(I64
I421
I115
tp1755
I43
s(I352
I453
I97
tp1756
I69
s(I363
I229
Ntp1757
I1
s(I224
I357
I119
tp1758
I24
s(I264
I197
I100
tp1759
I1
s(I381
I165
I97
tp1760
I1
s(I160
I421
I115
tp1761
I69
s(I395
I165
Ntp1762
I1
s(I251
I229
I119
tp1763
I1
s(I283
I197
I97
tp1764
I1
s(I25
I197
I100
tp1765
I1
s(I328
I133
Ntp1766
I1
s(I237
I229
Ntp1767
I1
s(I256
I389
I100
tp1768
I26
s(I135
I197
I97
tp1769
I1
s(I348
I133
Ntp1770
I1
s(I281
I197
I97
tp1771
I1
s(I29
I229
I119
tp1772
I1
s(I293
I133
I100
tp1773
I1
s(I192
I325
Ntp1774
I14
s(I125
I229
I115
tp1775
I1
s(I64
I421
I100
tp1776
I40
s(I64
I453
I115
tp1777
I69
s(I352
I421
I97
tp1778
I40
s(I32
I389
I119
tp1779
I15
s(I163
I101
I97
tp1780
I1
s(I116
I101
Ntp1781
I1
s(I27
I261
I119
tp1782
I1
s(I259
I133
Ntp1783
I1
s(I354
I165
I115
tp1784
I1
s(I154
I165
I119
tp1785
I1
s(I40
I165
I119
tp1786
I1
s(I97
I197
I119
tp1787
I1
s(I250
I165
I115
tp1788
I1
s(I160
I421
I100
tp1789
I63
s(I416
I261
I115
tp1790
I2
s(I57
I229
I97
tp1791
I1
s(I342
I197
Ntp1792
I1
s(I313
I133
I115
tp1793
I1
s(I261
I197
I119
tp1794
I1
s(I29
I293
I100
tp1795
I1
s(I233
I229
I119
tp1796
I1
s(I23
I229
I119
tp1797
I1
s(I399
I133
I115
tp1798
I1
s(I321
I133
I119
tp1799
I1
s(I135
I101
I97
tp1800
I1
s(I0
I325
I97
tp1801
I3
s(I409
I229
I97
tp1802
I1
s(I331
I229
Ntp1803
I1
s(I244
I165
I97
tp1804
I1
s(I247
I197
I100
tp1805
I1
s(I255
I101
I100
tp1806
I1
s(I29
I293
I115
tp1807
I1
s(I157
I261
I119
tp1808
I1
s(I253
I197
I115
tp1809
I1
s(I64
I453
I100
tp1810
I61
s(I64
I357
I115
tp1811
I11
s(I32
I485
I119
tp1812
I81
s(I61
I261
Ntp1813
I1
s(I322
I133
Ntp1814
I1
s(I300
I229
Ntp1815
I1
s(I150
I101
I115
tp1816
I1
s(I101
I197
I100
tp1817
I1
s(I378
I133
I115
tp1818
I1
s(I416
I261
I100
tp1819
I2
s(I416
I357
I115
tp1820
I6
s(I234
I197
I100
tp1821
I1
s(I384
I485
I119
tp1822
I75
s(I255
I197
Ntp1823
I1
s(I29
I293
Ntp1824
I1
s(I311
I133
I115
tp1825
I1
s(I233
I133
I119
tp1826
I1
s(I151
I197
I119
tp1827
I1
s(I224
I453
I115
tp1828
I134
s(I244
I197
I97
tp1829
I1
s(I251
I197
Ntp1830
I1
s(I29
I293
I119
tp1831
I1
s(I320
I197
I97
tp1832
I1
s(I0
I325
Ntp1833
I3
s(I64
I357
I100
tp1834
I13
s(I320
I389
I115
tp1835
I23
s(I352
I229
I97
tp1836
I1
s(I240
I197
I97
tp1837
I1
s(I204
I229
I97
tp1838
I1
s(I375
I165
Ntp1839
I1
s(I288
I229
I100
tp1840
I1
s(I235
I197
I100
tp1841
I1
s(I384
I389
I119
tp1842
I18
s(I320
I357
I115
tp1843
I13
s(I128
I293
I119
tp1844
I5
s(I176
I197
I100
tp1845
I1
s(I331
I133
Ntp1846
I1
s(I292
I197
Ntp1847
I1
s(I407
I229
Ntp1848
I1
s(I160
I229
Ntp1849
I1
s(I224
I453
I100
tp1850
I124
s(I32
I229
I119
tp1851
I1
s(I349
I165
I100
tp1852
I1
s(I345
I197
I119
tp1853
I1
s(I340
I197
Ntp1854
I1
s(I299
I165
I119
tp1855
I1
s(I355
I165
Ntp1856
I1
s(I379
I133
I100
tp1857
I1
s(I290
I197
I119
tp1858
I1
s(I242
I229
Ntp1859
I1
s(I320
I389
I100
tp1860
I18
s(I192
I421
I115
tp1861
I77
s(I187
I133
I97
tp1862
I1
s(I364
I229
Ntp1863
I1
s(I374
I165
I119
tp1864
I1
s(I262
I133
Ntp1865
I1
s(I416
I293
Ntp1866
I3
s(I235
I197
I115
tp1867
I1
s(I288
I421
I115
tp1868
I64
s(I405
I261
I119
tp1869
I1
s(I384
I293
I119
tp1870
I9
s(I330
I197
I97
tp1871
I1
s(I351
I165
Ntp1872
I1
s(I160
I325
Ntp1873
I9
s(I162
I101
I100
tp1874
I1
s(I224
I421
I100
tp1875
I74
s(I224
I261
I115
tp1876
I3
s(I224
I229
I100
tp1877
I1
s(I295
I165
Ntp1878
I1
s(I217
I133
Ntp1879
I1
s(I247
I229
I100
tp1880
I1
s(I23
I229
Ntp1881
I1
s(I192
I421
I100
tp1882
I69
s(I192
I453
I115
tp1883
I118
s(I160
I389
I119
tp1884
I19
s(I416
I357
Ntp1885
I6
s(I279
I133
I97
tp1886
I1
s(I198
I197
I100
tp1887
I1
s(I288
I421
I100
tp1888
I63
s(I32
I389
I97
tp1889
I12
s(I256
I325
I119
tp1890
I13
s(I403
I229
I97
tp1891
I1
s(I363
I165
I100
tp1892
I1
s(I389
I197
I119
tp1893
I1
s(I224
I261
I100
tp1894
I4
s(I224
I229
I115
tp1895
I1
s(I86
I101
Ntp1896
I1
s(I320
I229
Ntp1897
I1
s(I372
I165
I97
tp1898
I1
s(I258
I197
I115
tp1899
I1
s(I215
I133
Ntp1900
I1
s(I321
I133
I97
tp1901
I1
s(I63
I197
I97
tp1902
I1
s(I192
I453
I100
tp1903
I110
s(I402
I165
I119
tp1904
I1
s(I160
I485
I119
tp1905
I109
s(I287
I133
I119
tp1906
I1
s(I98
I229
I119
tp1907
I1
s(I156
I133
I115
tp1908
I1
s(I61
I325
I97
tp1909
I1
s(I93
I293
I119
tp1910
I1
s(I357
I229
Ntp1911
I1
s(I399
I165
I119
tp1912
I1
s(I367
I229
Ntp1913
I1
s(I32
I485
I97
tp1914
I52
s(I297
I197
Ntp1915
I1
s(I224
I325
Ntp1916
I17
s(I389
I165
Ntp1917
I1
s(I96
I357
I100
tp1918
I13
s(I352
I453
I115
tp1919
I73
s(I384
I485
I97
tp1920
I76
s(I384
I325
I115
tp1921
I8
s(I406
I133
Ntp1922
I1
s(I413
I133
I97
tp1923
I1
s(I402
I197
I119
tp1924
I1
s(I67
I165
I119
tp1925
I1
s(I160
I325
I119
tp1926
I9
s.